
lastLowPower.elf:     file format elf32-littlearm

Sections:
Idx Name          Size      VMA       LMA       File off  Algn
  0 .text         00000c0c  00000000  00000000  00010000  2**2
                  CONTENTS, ALLOC, LOAD, READONLY, CODE
  1 .relocate     0000000c  20000000  00000c0c  00020000  2**2
                  CONTENTS, ALLOC, LOAD, DATA
  2 .bss          00000080  2000000c  00000c18  0002000c  2**2
                  ALLOC
  3 .stack        00002004  2000008c  00000c98  0002000c  2**0
                  ALLOC
  4 .ARM.attributes 00000028  00000000  00000000  0002000c  2**0
                  CONTENTS, READONLY
  5 .comment      00000059  00000000  00000000  00020034  2**0
                  CONTENTS, READONLY
  6 .debug_frame  0000004c  00000000  00000000  00020090  2**2
                  CONTENTS, READONLY, DEBUGGING

Disassembly of section .text:

00000000 <exception_table>:
   0:	90 20 00 20 d5 08 00 00 d1 08 00 00 d1 08 00 00     . . ............
	...
  2c:	d1 08 00 00 00 00 00 00 00 00 00 00 d1 08 00 00     ................
  3c:	d1 08 00 00 d1 08 00 00 d1 08 00 00 d1 08 00 00     ................
  4c:	d1 08 00 00 e9 01 00 00 d1 08 00 00 d1 08 00 00     ................
  5c:	d1 08 00 00 d1 08 00 00 d1 08 00 00 d1 08 00 00     ................
  6c:	d1 08 00 00 d1 08 00 00 00 00 00 00 00 00 00 00     ................
  7c:	d1 08 00 00 d1 08 00 00 d1 08 00 00 d1 08 00 00     ................
  8c:	d1 08 00 00 d1 08 00 00 00 00 00 00 00 00 00 00     ................
  9c:	d1 08 00 00 d1 08 00 00 d1 08 00 00 d1 08 00 00     ................
  ac:	d1 08 00 00 00 00 00 00                             ........

000000b4 <__do_global_dtors_aux>:
  b4:	b510      	push	{r4, lr}
  b6:	4c06      	ldr	r4, [pc, #24]	; (d0 <__do_global_dtors_aux+0x1c>)
  b8:	7823      	ldrb	r3, [r4, #0]
  ba:	2b00      	cmp	r3, #0
  bc:	d107      	bne.n	ce <__do_global_dtors_aux+0x1a>
  be:	4b05      	ldr	r3, [pc, #20]	; (d4 <__do_global_dtors_aux+0x20>)
  c0:	2b00      	cmp	r3, #0
  c2:	d002      	beq.n	ca <__do_global_dtors_aux+0x16>
  c4:	4804      	ldr	r0, [pc, #16]	; (d8 <__do_global_dtors_aux+0x24>)
  c6:	e000      	b.n	ca <__do_global_dtors_aux+0x16>
  c8:	bf00      	nop
  ca:	2301      	movs	r3, #1
  cc:	7023      	strb	r3, [r4, #0]
  ce:	bd10      	pop	{r4, pc}
  d0:	2000000c 	.word	0x2000000c
  d4:	00000000 	.word	0x00000000
  d8:	00000c0c 	.word	0x00000c0c

000000dc <frame_dummy>:
  dc:	4b08      	ldr	r3, [pc, #32]	; (100 <frame_dummy+0x24>)
  de:	b510      	push	{r4, lr}
  e0:	2b00      	cmp	r3, #0
  e2:	d003      	beq.n	ec <frame_dummy+0x10>
  e4:	4907      	ldr	r1, [pc, #28]	; (104 <frame_dummy+0x28>)
  e6:	4808      	ldr	r0, [pc, #32]	; (108 <frame_dummy+0x2c>)
  e8:	e000      	b.n	ec <frame_dummy+0x10>
  ea:	bf00      	nop
  ec:	4807      	ldr	r0, [pc, #28]	; (10c <frame_dummy+0x30>)
  ee:	6803      	ldr	r3, [r0, #0]
  f0:	2b00      	cmp	r3, #0
  f2:	d100      	bne.n	f6 <frame_dummy+0x1a>
  f4:	bd10      	pop	{r4, pc}
  f6:	4b06      	ldr	r3, [pc, #24]	; (110 <frame_dummy+0x34>)
  f8:	2b00      	cmp	r3, #0
  fa:	d0fb      	beq.n	f4 <frame_dummy+0x18>
  fc:	4798      	blx	r3
  fe:	e7f9      	b.n	f4 <frame_dummy+0x18>
 100:	00000000 	.word	0x00000000
 104:	20000010 	.word	0x20000010
 108:	00000c0c 	.word	0x00000c0c
 10c:	00000c0c 	.word	0x00000c0c
 110:	00000000 	.word	0x00000000

00000114 <system_board_init>:
 114:	4770      	bx	lr
	...

00000118 <delay_init>:
 118:	b570      	push	{r4, r5, r6, lr}
 11a:	4b09      	ldr	r3, [pc, #36]	; (140 <delay_init+0x28>)
 11c:	2000      	movs	r0, #0
 11e:	4798      	blx	r3
 120:	21fa      	movs	r1, #250	; 0xfa
 122:	4c08      	ldr	r4, [pc, #32]	; (144 <delay_init+0x2c>)
 124:	0089      	lsls	r1, r1, #2
 126:	0005      	movs	r5, r0
 128:	47a0      	blx	r4
 12a:	4b07      	ldr	r3, [pc, #28]	; (148 <delay_init+0x30>)
 12c:	4907      	ldr	r1, [pc, #28]	; (14c <delay_init+0x34>)
 12e:	6018      	str	r0, [r3, #0]
 130:	0028      	movs	r0, r5
 132:	47a0      	blx	r4
 134:	2205      	movs	r2, #5
 136:	4b06      	ldr	r3, [pc, #24]	; (150 <delay_init+0x38>)
 138:	6018      	str	r0, [r3, #0]
 13a:	4b06      	ldr	r3, [pc, #24]	; (154 <delay_init+0x3c>)
 13c:	601a      	str	r2, [r3, #0]
 13e:	bd70      	pop	{r4, r5, r6, pc}
 140:	00000691 	.word	0x00000691
 144:	00000a8d 	.word	0x00000a8d
 148:	20000000 	.word	0x20000000
 14c:	000f4240 	.word	0x000f4240
 150:	20000004 	.word	0x20000004
 154:	e000e010 	.word	0xe000e010

00000158 <delay_cycles_ms>:
 158:	b530      	push	{r4, r5, lr}
 15a:	2480      	movs	r4, #128	; 0x80
 15c:	2100      	movs	r1, #0
 15e:	4b07      	ldr	r3, [pc, #28]	; (17c <delay_cycles_ms+0x24>)
 160:	0264      	lsls	r4, r4, #9
 162:	681a      	ldr	r2, [r3, #0]
 164:	4b06      	ldr	r3, [pc, #24]	; (180 <delay_cycles_ms+0x28>)
 166:	3801      	subs	r0, #1
 168:	d200      	bcs.n	16c <delay_cycles_ms+0x14>
 16a:	bd30      	pop	{r4, r5, pc}
 16c:	2a00      	cmp	r2, #0
 16e:	d0fa      	beq.n	166 <delay_cycles_ms+0xe>
 170:	605a      	str	r2, [r3, #4]
 172:	6099      	str	r1, [r3, #8]
 174:	681d      	ldr	r5, [r3, #0]
 176:	4225      	tst	r5, r4
 178:	d0fc      	beq.n	174 <delay_cycles_ms+0x1c>
 17a:	e7f4      	b.n	166 <delay_cycles_ms+0xe>
 17c:	20000000 	.word	0x20000000
 180:	e000e010 	.word	0xe000e010

00000184 <cpu_irq_enter_critical>:
 184:	4b09      	ldr	r3, [pc, #36]	; (1ac <cpu_irq_enter_critical+0x28>)
 186:	6819      	ldr	r1, [r3, #0]
 188:	2900      	cmp	r1, #0
 18a:	d10b      	bne.n	1a4 <cpu_irq_enter_critical+0x20>
 18c:	f3ef 8010 	mrs	r0, PRIMASK
 190:	4a07      	ldr	r2, [pc, #28]	; (1b0 <cpu_irq_enter_critical+0x2c>)
 192:	2800      	cmp	r0, #0
 194:	d105      	bne.n	1a2 <cpu_irq_enter_critical+0x1e>
 196:	b672      	cpsid	i
 198:	f3bf 8f5f 	dmb	sy
 19c:	4905      	ldr	r1, [pc, #20]	; (1b4 <cpu_irq_enter_critical+0x30>)
 19e:	7008      	strb	r0, [r1, #0]
 1a0:	2101      	movs	r1, #1
 1a2:	7011      	strb	r1, [r2, #0]
 1a4:	681a      	ldr	r2, [r3, #0]
 1a6:	3201      	adds	r2, #1
 1a8:	601a      	str	r2, [r3, #0]
 1aa:	4770      	bx	lr
 1ac:	20000028 	.word	0x20000028
 1b0:	2000002c 	.word	0x2000002c
 1b4:	20000008 	.word	0x20000008

000001b8 <cpu_irq_leave_critical>:
 1b8:	4b08      	ldr	r3, [pc, #32]	; (1dc <cpu_irq_leave_critical+0x24>)
 1ba:	681a      	ldr	r2, [r3, #0]
 1bc:	3a01      	subs	r2, #1
 1be:	601a      	str	r2, [r3, #0]
 1c0:	681b      	ldr	r3, [r3, #0]
 1c2:	2b00      	cmp	r3, #0
 1c4:	d109      	bne.n	1da <cpu_irq_leave_critical+0x22>
 1c6:	4b06      	ldr	r3, [pc, #24]	; (1e0 <cpu_irq_leave_critical+0x28>)
 1c8:	781b      	ldrb	r3, [r3, #0]
 1ca:	2b00      	cmp	r3, #0
 1cc:	d005      	beq.n	1da <cpu_irq_leave_critical+0x22>
 1ce:	2201      	movs	r2, #1
 1d0:	4b04      	ldr	r3, [pc, #16]	; (1e4 <cpu_irq_leave_critical+0x2c>)
 1d2:	701a      	strb	r2, [r3, #0]
 1d4:	f3bf 8f5f 	dmb	sy
 1d8:	b662      	cpsie	i
 1da:	4770      	bx	lr
 1dc:	20000028 	.word	0x20000028
 1e0:	2000002c 	.word	0x2000002c
 1e4:	20000008 	.word	0x20000008

000001e8 <EIC_Handler>:
 1e8:	2300      	movs	r3, #0
 1ea:	b570      	push	{r4, r5, r6, lr}
 1ec:	2501      	movs	r5, #1
 1ee:	4c0b      	ldr	r4, [pc, #44]	; (21c <EIC_Handler+0x34>)
 1f0:	7023      	strb	r3, [r4, #0]
 1f2:	7823      	ldrb	r3, [r4, #0]
 1f4:	2b0f      	cmp	r3, #15
 1f6:	d900      	bls.n	1fa <EIC_Handler+0x12>
 1f8:	bd70      	pop	{r4, r5, r6, pc}
 1fa:	0029      	movs	r1, r5
 1fc:	4099      	lsls	r1, r3
 1fe:	4a08      	ldr	r2, [pc, #32]	; (220 <EIC_Handler+0x38>)
 200:	6910      	ldr	r0, [r2, #16]
 202:	4208      	tst	r0, r1
 204:	d006      	beq.n	214 <EIC_Handler+0x2c>
 206:	6111      	str	r1, [r2, #16]
 208:	4a06      	ldr	r2, [pc, #24]	; (224 <EIC_Handler+0x3c>)
 20a:	009b      	lsls	r3, r3, #2
 20c:	589b      	ldr	r3, [r3, r2]
 20e:	2b00      	cmp	r3, #0
 210:	d000      	beq.n	214 <EIC_Handler+0x2c>
 212:	4798      	blx	r3
 214:	7823      	ldrb	r3, [r4, #0]
 216:	3301      	adds	r3, #1
 218:	7023      	strb	r3, [r4, #0]
 21a:	e7ea      	b.n	1f2 <EIC_Handler+0xa>
 21c:	20000048 	.word	0x20000048
 220:	40001800 	.word	0x40001800
 224:	2000004c 	.word	0x2000004c

00000228 <extint_is_syncing>:
 228:	4b01      	ldr	r3, [pc, #4]	; (230 <extint_is_syncing+0x8>)
 22a:	7858      	ldrb	r0, [r3, #1]
 22c:	09c0      	lsrs	r0, r0, #7
 22e:	4770      	bx	lr
 230:	40001800 	.word	0x40001800

00000234 <_extint_enable>:
 234:	2302      	movs	r3, #2
 236:	b510      	push	{r4, lr}
 238:	4a04      	ldr	r2, [pc, #16]	; (24c <_extint_enable+0x18>)
 23a:	7811      	ldrb	r1, [r2, #0]
 23c:	430b      	orrs	r3, r1
 23e:	7013      	strb	r3, [r2, #0]
 240:	4b03      	ldr	r3, [pc, #12]	; (250 <_extint_enable+0x1c>)
 242:	4798      	blx	r3
 244:	2800      	cmp	r0, #0
 246:	d1fb      	bne.n	240 <_extint_enable+0xc>
 248:	bd10      	pop	{r4, pc}
 24a:	46c0      	nop			; (mov r8, r8)
 24c:	40001800 	.word	0x40001800
 250:	00000229 	.word	0x00000229

00000254 <_system_extint_init>:
 254:	2340      	movs	r3, #64	; 0x40
 256:	b507      	push	{r0, r1, r2, lr}
 258:	4a10      	ldr	r2, [pc, #64]	; (29c <_system_extint_init+0x48>)
 25a:	2005      	movs	r0, #5
 25c:	6991      	ldr	r1, [r2, #24]
 25e:	430b      	orrs	r3, r1
 260:	6193      	str	r3, [r2, #24]
 262:	2300      	movs	r3, #0
 264:	a901      	add	r1, sp, #4
 266:	700b      	strb	r3, [r1, #0]
 268:	4b0d      	ldr	r3, [pc, #52]	; (2a0 <_system_extint_init+0x4c>)
 26a:	4798      	blx	r3
 26c:	4b0d      	ldr	r3, [pc, #52]	; (2a4 <_system_extint_init+0x50>)
 26e:	2005      	movs	r0, #5
 270:	4798      	blx	r3
 272:	2301      	movs	r3, #1
 274:	4a0c      	ldr	r2, [pc, #48]	; (2a8 <_system_extint_init+0x54>)
 276:	7811      	ldrb	r1, [r2, #0]
 278:	430b      	orrs	r3, r1
 27a:	7013      	strb	r3, [r2, #0]
 27c:	4b0b      	ldr	r3, [pc, #44]	; (2ac <_system_extint_init+0x58>)
 27e:	4798      	blx	r3
 280:	2800      	cmp	r0, #0
 282:	d1fb      	bne.n	27c <_system_extint_init+0x28>
 284:	0002      	movs	r2, r0
 286:	4b0a      	ldr	r3, [pc, #40]	; (2b0 <_system_extint_init+0x5c>)
 288:	501a      	str	r2, [r3, r0]
 28a:	3004      	adds	r0, #4
 28c:	2840      	cmp	r0, #64	; 0x40
 28e:	d1fb      	bne.n	288 <_system_extint_init+0x34>
 290:	2210      	movs	r2, #16
 292:	4b08      	ldr	r3, [pc, #32]	; (2b4 <_system_extint_init+0x60>)
 294:	601a      	str	r2, [r3, #0]
 296:	4b08      	ldr	r3, [pc, #32]	; (2b8 <_system_extint_init+0x64>)
 298:	4798      	blx	r3
 29a:	bd07      	pop	{r0, r1, r2, pc}
 29c:	40000400 	.word	0x40000400
 2a0:	000007a1 	.word	0x000007a1
 2a4:	00000719 	.word	0x00000719
 2a8:	40001800 	.word	0x40001800
 2ac:	00000229 	.word	0x00000229
 2b0:	2000004c 	.word	0x2000004c
 2b4:	e000e100 	.word	0xe000e100
 2b8:	00000235 	.word	0x00000235

000002bc <port_pin_set_config>:
 2bc:	b507      	push	{r0, r1, r2, lr}
 2be:	2280      	movs	r2, #128	; 0x80
 2c0:	ab01      	add	r3, sp, #4
 2c2:	701a      	strb	r2, [r3, #0]
 2c4:	780a      	ldrb	r2, [r1, #0]
 2c6:	705a      	strb	r2, [r3, #1]
 2c8:	784a      	ldrb	r2, [r1, #1]
 2ca:	709a      	strb	r2, [r3, #2]
 2cc:	788a      	ldrb	r2, [r1, #2]
 2ce:	0019      	movs	r1, r3
 2d0:	70da      	strb	r2, [r3, #3]
 2d2:	4b01      	ldr	r3, [pc, #4]	; (2d8 <port_pin_set_config+0x1c>)
 2d4:	4798      	blx	r3
 2d6:	bd07      	pop	{r0, r1, r2, pc}
 2d8:	00000875 	.word	0x00000875

000002dc <_system_dfll_wait_for_sync>:
 2dc:	2310      	movs	r3, #16
 2de:	4902      	ldr	r1, [pc, #8]	; (2e8 <_system_dfll_wait_for_sync+0xc>)
 2e0:	68ca      	ldr	r2, [r1, #12]
 2e2:	421a      	tst	r2, r3
 2e4:	d0fc      	beq.n	2e0 <_system_dfll_wait_for_sync+0x4>
 2e6:	4770      	bx	lr
 2e8:	40000800 	.word	0x40000800

000002ec <system_clock_source_get_hz>:
 2ec:	b570      	push	{r4, r5, r6, lr}
 2ee:	2808      	cmp	r0, #8
 2f0:	d806      	bhi.n	300 <system_clock_source_get_hz+0x14>
 2f2:	f000 fbc1 	bl	a78 <__gnu_thumb1_case_uqi>
 2f6:	0508      	.short	0x0508
 2f8:	122e2e05 	.word	0x122e2e05
 2fc:	150b      	.short	0x150b
 2fe:	26          	.byte	0x26
 2ff:	00          	.byte	0x00
 300:	2400      	movs	r4, #0
 302:	0020      	movs	r0, r4
 304:	bd70      	pop	{r4, r5, r6, pc}
 306:	4b15      	ldr	r3, [pc, #84]	; (35c <system_clock_source_get_hz+0x70>)
 308:	691c      	ldr	r4, [r3, #16]
 30a:	e7fa      	b.n	302 <system_clock_source_get_hz+0x16>
 30c:	4b14      	ldr	r3, [pc, #80]	; (360 <system_clock_source_get_hz+0x74>)
 30e:	4c15      	ldr	r4, [pc, #84]	; (364 <system_clock_source_get_hz+0x78>)
 310:	6a1b      	ldr	r3, [r3, #32]
 312:	059b      	lsls	r3, r3, #22
 314:	0f9b      	lsrs	r3, r3, #30
 316:	40dc      	lsrs	r4, r3
 318:	e7f3      	b.n	302 <system_clock_source_get_hz+0x16>
 31a:	4b10      	ldr	r3, [pc, #64]	; (35c <system_clock_source_get_hz+0x70>)
 31c:	695c      	ldr	r4, [r3, #20]
 31e:	e7f0      	b.n	302 <system_clock_source_get_hz+0x16>
 320:	4d0e      	ldr	r5, [pc, #56]	; (35c <system_clock_source_get_hz+0x70>)
 322:	2400      	movs	r4, #0
 324:	682b      	ldr	r3, [r5, #0]
 326:	079b      	lsls	r3, r3, #30
 328:	d5eb      	bpl.n	302 <system_clock_source_get_hz+0x16>
 32a:	4b0f      	ldr	r3, [pc, #60]	; (368 <system_clock_source_get_hz+0x7c>)
 32c:	4798      	blx	r3
 32e:	682b      	ldr	r3, [r5, #0]
 330:	075b      	lsls	r3, r3, #29
 332:	d511      	bpl.n	358 <system_clock_source_get_hz+0x6c>
 334:	0020      	movs	r0, r4
 336:	4b0d      	ldr	r3, [pc, #52]	; (36c <system_clock_source_get_hz+0x80>)
 338:	4798      	blx	r3
 33a:	68ac      	ldr	r4, [r5, #8]
 33c:	b2a4      	uxth	r4, r4
 33e:	4344      	muls	r4, r0
 340:	e7df      	b.n	302 <system_clock_source_get_hz+0x16>
 342:	4b0b      	ldr	r3, [pc, #44]	; (370 <system_clock_source_get_hz+0x84>)
 344:	2400      	movs	r4, #0
 346:	781b      	ldrb	r3, [r3, #0]
 348:	075b      	lsls	r3, r3, #29
 34a:	d5da      	bpl.n	302 <system_clock_source_get_hz+0x16>
 34c:	4b03      	ldr	r3, [pc, #12]	; (35c <system_clock_source_get_hz+0x70>)
 34e:	68dc      	ldr	r4, [r3, #12]
 350:	e7d7      	b.n	302 <system_clock_source_get_hz+0x16>
 352:	2480      	movs	r4, #128	; 0x80
 354:	0224      	lsls	r4, r4, #8
 356:	e7d4      	b.n	302 <system_clock_source_get_hz+0x16>
 358:	4c06      	ldr	r4, [pc, #24]	; (374 <system_clock_source_get_hz+0x88>)
 35a:	e7d2      	b.n	302 <system_clock_source_get_hz+0x16>
 35c:	20000030 	.word	0x20000030
 360:	40000800 	.word	0x40000800
 364:	007a1200 	.word	0x007a1200
 368:	000002dd 	.word	0x000002dd
 36c:	000007bd 	.word	0x000007bd
 370:	40000850 	.word	0x40000850
 374:	02dc6c00 	.word	0x02dc6c00

00000378 <system_clock_source_osc8m_set_config>:
 378:	b570      	push	{r4, r5, r6, lr}
 37a:	7884      	ldrb	r4, [r0, #2]
 37c:	7802      	ldrb	r2, [r0, #0]
 37e:	7845      	ldrb	r5, [r0, #1]
 380:	2001      	movs	r0, #1
 382:	2640      	movs	r6, #64	; 0x40
 384:	4005      	ands	r5, r0
 386:	4020      	ands	r0, r4
 388:	2480      	movs	r4, #128	; 0x80
 38a:	4908      	ldr	r1, [pc, #32]	; (3ac <system_clock_source_osc8m_set_config+0x34>)
 38c:	01ad      	lsls	r5, r5, #6
 38e:	6a0b      	ldr	r3, [r1, #32]
 390:	01c0      	lsls	r0, r0, #7
 392:	43b3      	bics	r3, r6
 394:	432b      	orrs	r3, r5
 396:	43a3      	bics	r3, r4
 398:	4303      	orrs	r3, r0
 39a:	2003      	movs	r0, #3
 39c:	4002      	ands	r2, r0
 39e:	4804      	ldr	r0, [pc, #16]	; (3b0 <system_clock_source_osc8m_set_config+0x38>)
 3a0:	0212      	lsls	r2, r2, #8
 3a2:	4003      	ands	r3, r0
 3a4:	4313      	orrs	r3, r2
 3a6:	620b      	str	r3, [r1, #32]
 3a8:	bd70      	pop	{r4, r5, r6, pc}
 3aa:	46c0      	nop			; (mov r8, r8)
 3ac:	40000800 	.word	0x40000800
 3b0:	fffffcff 	.word	0xfffffcff

000003b4 <system_clock_source_osc32k_set_config>:
 3b4:	b5f7      	push	{r0, r1, r2, r4, r5, r6, r7, lr}
 3b6:	4f18      	ldr	r7, [pc, #96]	; (418 <system_clock_source_osc32k_set_config+0x64>)
 3b8:	7846      	ldrb	r6, [r0, #1]
 3ba:	69bb      	ldr	r3, [r7, #24]
 3bc:	0019      	movs	r1, r3
 3be:	7803      	ldrb	r3, [r0, #0]
 3c0:	9301      	str	r3, [sp, #4]
 3c2:	2304      	movs	r3, #4
 3c4:	7942      	ldrb	r2, [r0, #5]
 3c6:	7904      	ldrb	r4, [r0, #4]
 3c8:	78c5      	ldrb	r5, [r0, #3]
 3ca:	9200      	str	r2, [sp, #0]
 3cc:	2201      	movs	r2, #1
 3ce:	4399      	bics	r1, r3
 3d0:	2308      	movs	r3, #8
 3d2:	7880      	ldrb	r0, [r0, #2]
 3d4:	4016      	ands	r6, r2
 3d6:	4010      	ands	r0, r2
 3d8:	0080      	lsls	r0, r0, #2
 3da:	4308      	orrs	r0, r1
 3dc:	4398      	bics	r0, r3
 3de:	00f6      	lsls	r6, r6, #3
 3e0:	4306      	orrs	r6, r0
 3e2:	4015      	ands	r5, r2
 3e4:	01a8      	lsls	r0, r5, #6
 3e6:	0035      	movs	r5, r6
 3e8:	3338      	adds	r3, #56	; 0x38
 3ea:	439d      	bics	r5, r3
 3ec:	4305      	orrs	r5, r0
 3ee:	4014      	ands	r4, r2
 3f0:	01e3      	lsls	r3, r4, #7
 3f2:	2080      	movs	r0, #128	; 0x80
 3f4:	002c      	movs	r4, r5
 3f6:	4384      	bics	r4, r0
 3f8:	431c      	orrs	r4, r3
 3fa:	2307      	movs	r3, #7
 3fc:	9901      	ldr	r1, [sp, #4]
 3fe:	400b      	ands	r3, r1
 400:	4906      	ldr	r1, [pc, #24]	; (41c <system_clock_source_osc32k_set_config+0x68>)
 402:	021b      	lsls	r3, r3, #8
 404:	4021      	ands	r1, r4
 406:	4319      	orrs	r1, r3
 408:	9b00      	ldr	r3, [sp, #0]
 40a:	401a      	ands	r2, r3
 40c:	0313      	lsls	r3, r2, #12
 40e:	4a04      	ldr	r2, [pc, #16]	; (420 <system_clock_source_osc32k_set_config+0x6c>)
 410:	400a      	ands	r2, r1
 412:	431a      	orrs	r2, r3
 414:	61ba      	str	r2, [r7, #24]
 416:	bdf7      	pop	{r0, r1, r2, r4, r5, r6, r7, pc}
 418:	40000800 	.word	0x40000800
 41c:	fffff8ff 	.word	0xfffff8ff
 420:	ffffefff 	.word	0xffffefff

00000424 <system_clock_source_enable>:
 424:	b5f8      	push	{r3, r4, r5, r6, r7, lr}
 426:	2808      	cmp	r0, #8
 428:	d806      	bhi.n	438 <system_clock_source_enable+0x14>
 42a:	f000 fb25 	bl	a78 <__gnu_thumb1_case_uqi>
 42e:	0514      	.short	0x0514
 430:	1a0e0c05 	.word	0x1a0e0c05
 434:	2007      	.short	0x2007
 436:	34          	.byte	0x34
 437:	00          	.byte	0x00
 438:	2017      	movs	r0, #23
 43a:	bdf8      	pop	{r3, r4, r5, r6, r7, pc}
 43c:	2302      	movs	r3, #2
 43e:	4a19      	ldr	r2, [pc, #100]	; (4a4 <system_clock_source_enable+0x80>)
 440:	6a11      	ldr	r1, [r2, #32]
 442:	430b      	orrs	r3, r1
 444:	6213      	str	r3, [r2, #32]
 446:	2000      	movs	r0, #0
 448:	e7f7      	b.n	43a <system_clock_source_enable+0x16>
 44a:	2302      	movs	r3, #2
 44c:	4a15      	ldr	r2, [pc, #84]	; (4a4 <system_clock_source_enable+0x80>)
 44e:	6991      	ldr	r1, [r2, #24]
 450:	430b      	orrs	r3, r1
 452:	6193      	str	r3, [r2, #24]
 454:	e7f7      	b.n	446 <system_clock_source_enable+0x22>
 456:	2302      	movs	r3, #2
 458:	4a12      	ldr	r2, [pc, #72]	; (4a4 <system_clock_source_enable+0x80>)
 45a:	8a11      	ldrh	r1, [r2, #16]
 45c:	430b      	orrs	r3, r1
 45e:	8213      	strh	r3, [r2, #16]
 460:	e7f1      	b.n	446 <system_clock_source_enable+0x22>
 462:	2302      	movs	r3, #2
 464:	4a0f      	ldr	r2, [pc, #60]	; (4a4 <system_clock_source_enable+0x80>)
 466:	8a91      	ldrh	r1, [r2, #20]
 468:	430b      	orrs	r3, r1
 46a:	8293      	strh	r3, [r2, #20]
 46c:	e7eb      	b.n	446 <system_clock_source_enable+0x22>
 46e:	2202      	movs	r2, #2
 470:	2400      	movs	r4, #0
 472:	4e0d      	ldr	r6, [pc, #52]	; (4a8 <system_clock_source_enable+0x84>)
 474:	4d0b      	ldr	r5, [pc, #44]	; (4a4 <system_clock_source_enable+0x80>)
 476:	6833      	ldr	r3, [r6, #0]
 478:	4f0c      	ldr	r7, [pc, #48]	; (4ac <system_clock_source_enable+0x88>)
 47a:	4313      	orrs	r3, r2
 47c:	6033      	str	r3, [r6, #0]
 47e:	84aa      	strh	r2, [r5, #36]	; 0x24
 480:	47b8      	blx	r7
 482:	68b3      	ldr	r3, [r6, #8]
 484:	62eb      	str	r3, [r5, #44]	; 0x2c
 486:	6873      	ldr	r3, [r6, #4]
 488:	62ab      	str	r3, [r5, #40]	; 0x28
 48a:	84ac      	strh	r4, [r5, #36]	; 0x24
 48c:	47b8      	blx	r7
 48e:	6833      	ldr	r3, [r6, #0]
 490:	b29b      	uxth	r3, r3
 492:	84ab      	strh	r3, [r5, #36]	; 0x24
 494:	e7d7      	b.n	446 <system_clock_source_enable+0x22>
 496:	2302      	movs	r3, #2
 498:	4a05      	ldr	r2, [pc, #20]	; (4b0 <system_clock_source_enable+0x8c>)
 49a:	7811      	ldrb	r1, [r2, #0]
 49c:	430b      	orrs	r3, r1
 49e:	7013      	strb	r3, [r2, #0]
 4a0:	e7d1      	b.n	446 <system_clock_source_enable+0x22>
 4a2:	46c0      	nop			; (mov r8, r8)
 4a4:	40000800 	.word	0x40000800
 4a8:	20000030 	.word	0x20000030
 4ac:	000002dd 	.word	0x000002dd
 4b0:	40000844 	.word	0x40000844

000004b4 <system_clock_init>:
 4b4:	23c2      	movs	r3, #194	; 0xc2
 4b6:	211e      	movs	r1, #30
 4b8:	b5f0      	push	{r4, r5, r6, r7, lr}
 4ba:	4c25      	ldr	r4, [pc, #148]	; (550 <system_clock_init+0x9c>)
 4bc:	00db      	lsls	r3, r3, #3
 4be:	4a25      	ldr	r2, [pc, #148]	; (554 <system_clock_init+0xa0>)
 4c0:	60a3      	str	r3, [r4, #8]
 4c2:	6853      	ldr	r3, [r2, #4]
 4c4:	2600      	movs	r6, #0
 4c6:	438b      	bics	r3, r1
 4c8:	6053      	str	r3, [r2, #4]
 4ca:	2301      	movs	r3, #1
 4cc:	b087      	sub	sp, #28
 4ce:	ad03      	add	r5, sp, #12
 4d0:	702b      	strb	r3, [r5, #0]
 4d2:	b2f0      	uxtb	r0, r6
 4d4:	0029      	movs	r1, r5
 4d6:	4b20      	ldr	r3, [pc, #128]	; (558 <system_clock_init+0xa4>)
 4d8:	3601      	adds	r6, #1
 4da:	4798      	blx	r3
 4dc:	2e25      	cmp	r6, #37	; 0x25
 4de:	d1f8      	bne.n	4d2 <system_clock_init+0x1e>
 4e0:	4b1e      	ldr	r3, [pc, #120]	; (55c <system_clock_init+0xa8>)
 4e2:	69a2      	ldr	r2, [r4, #24]
 4e4:	681b      	ldr	r3, [r3, #0]
 4e6:	491e      	ldr	r1, [pc, #120]	; (560 <system_clock_init+0xac>)
 4e8:	04db      	lsls	r3, r3, #19
 4ea:	0e5b      	lsrs	r3, r3, #25
 4ec:	400a      	ands	r2, r1
 4ee:	041b      	lsls	r3, r3, #16
 4f0:	4313      	orrs	r3, r2
 4f2:	61a3      	str	r3, [r4, #24]
 4f4:	2307      	movs	r3, #7
 4f6:	2400      	movs	r4, #0
 4f8:	a801      	add	r0, sp, #4
 4fa:	3e24      	subs	r6, #36	; 0x24
 4fc:	7003      	strb	r3, [r0, #0]
 4fe:	4b19      	ldr	r3, [pc, #100]	; (564 <system_clock_init+0xb0>)
 500:	7046      	strb	r6, [r0, #1]
 502:	7086      	strb	r6, [r0, #2]
 504:	70c4      	strb	r4, [r0, #3]
 506:	7106      	strb	r6, [r0, #4]
 508:	7144      	strb	r4, [r0, #5]
 50a:	4798      	blx	r3
 50c:	4f16      	ldr	r7, [pc, #88]	; (568 <system_clock_init+0xb4>)
 50e:	2004      	movs	r0, #4
 510:	47b8      	blx	r7
 512:	466b      	mov	r3, sp
 514:	4668      	mov	r0, sp
 516:	705c      	strb	r4, [r3, #1]
 518:	709e      	strb	r6, [r3, #2]
 51a:	701c      	strb	r4, [r3, #0]
 51c:	4b13      	ldr	r3, [pc, #76]	; (56c <system_clock_init+0xb8>)
 51e:	4798      	blx	r3
 520:	2006      	movs	r0, #6
 522:	47b8      	blx	r7
 524:	4b12      	ldr	r3, [pc, #72]	; (570 <system_clock_init+0xbc>)
 526:	4798      	blx	r3
 528:	4b12      	ldr	r3, [pc, #72]	; (574 <system_clock_init+0xc0>)
 52a:	0029      	movs	r1, r5
 52c:	721c      	strb	r4, [r3, #8]
 52e:	725c      	strb	r4, [r3, #9]
 530:	729c      	strb	r4, [r3, #10]
 532:	72dc      	strb	r4, [r3, #11]
 534:	2306      	movs	r3, #6
 536:	0020      	movs	r0, r4
 538:	702b      	strb	r3, [r5, #0]
 53a:	4b0f      	ldr	r3, [pc, #60]	; (578 <system_clock_init+0xc4>)
 53c:	606e      	str	r6, [r5, #4]
 53e:	706c      	strb	r4, [r5, #1]
 540:	722c      	strb	r4, [r5, #8]
 542:	726c      	strb	r4, [r5, #9]
 544:	4798      	blx	r3
 546:	0020      	movs	r0, r4
 548:	4b0c      	ldr	r3, [pc, #48]	; (57c <system_clock_init+0xc8>)
 54a:	4798      	blx	r3
 54c:	b007      	add	sp, #28
 54e:	bdf0      	pop	{r4, r5, r6, r7, pc}
 550:	40000800 	.word	0x40000800
 554:	41004000 	.word	0x41004000
 558:	000007a1 	.word	0x000007a1
 55c:	00806024 	.word	0x00806024
 560:	ff80ffff 	.word	0xff80ffff
 564:	000003b5 	.word	0x000003b5
 568:	00000425 	.word	0x00000425
 56c:	00000379 	.word	0x00000379
 570:	0000058d 	.word	0x0000058d
 574:	40000400 	.word	0x40000400
 578:	000005ad 	.word	0x000005ad
 57c:	00000651 	.word	0x00000651

00000580 <system_gclk_is_syncing>:
 580:	4b01      	ldr	r3, [pc, #4]	; (588 <system_gclk_is_syncing+0x8>)
 582:	7858      	ldrb	r0, [r3, #1]
 584:	09c0      	lsrs	r0, r0, #7
 586:	4770      	bx	lr
 588:	40000c00 	.word	0x40000c00

0000058c <system_gclk_init>:
 58c:	2308      	movs	r3, #8
 58e:	4a05      	ldr	r2, [pc, #20]	; (5a4 <system_gclk_init+0x18>)
 590:	6991      	ldr	r1, [r2, #24]
 592:	430b      	orrs	r3, r1
 594:	6193      	str	r3, [r2, #24]
 596:	2301      	movs	r3, #1
 598:	4a03      	ldr	r2, [pc, #12]	; (5a8 <system_gclk_init+0x1c>)
 59a:	7013      	strb	r3, [r2, #0]
 59c:	7811      	ldrb	r1, [r2, #0]
 59e:	4219      	tst	r1, r3
 5a0:	d1fc      	bne.n	59c <system_gclk_init+0x10>
 5a2:	4770      	bx	lr
 5a4:	40000400 	.word	0x40000400
 5a8:	40000c00 	.word	0x40000c00

000005ac <system_gclk_gen_set_config>:
 5ac:	b5f8      	push	{r3, r4, r5, r6, r7, lr}
 5ae:	780c      	ldrb	r4, [r1, #0]
 5b0:	784b      	ldrb	r3, [r1, #1]
 5b2:	0224      	lsls	r4, r4, #8
 5b4:	0006      	movs	r6, r0
 5b6:	0005      	movs	r5, r0
 5b8:	4304      	orrs	r4, r0
 5ba:	2b00      	cmp	r3, #0
 5bc:	d002      	beq.n	5c4 <system_gclk_gen_set_config+0x18>
 5be:	2380      	movs	r3, #128	; 0x80
 5c0:	02db      	lsls	r3, r3, #11
 5c2:	431c      	orrs	r4, r3
 5c4:	7a4b      	ldrb	r3, [r1, #9]
 5c6:	2b00      	cmp	r3, #0
 5c8:	d002      	beq.n	5d0 <system_gclk_gen_set_config+0x24>
 5ca:	2380      	movs	r3, #128	; 0x80
 5cc:	031b      	lsls	r3, r3, #12
 5ce:	431c      	orrs	r4, r3
 5d0:	684b      	ldr	r3, [r1, #4]
 5d2:	2b01      	cmp	r3, #1
 5d4:	d912      	bls.n	5fc <system_gclk_gen_set_config+0x50>
 5d6:	1e5d      	subs	r5, r3, #1
 5d8:	401d      	ands	r5, r3
 5da:	2202      	movs	r2, #2
 5dc:	2d00      	cmp	r5, #0
 5de:	d006      	beq.n	5ee <system_gclk_gen_set_config+0x42>
 5e0:	021d      	lsls	r5, r3, #8
 5e2:	2380      	movs	r3, #128	; 0x80
 5e4:	4335      	orrs	r5, r6
 5e6:	029b      	lsls	r3, r3, #10
 5e8:	e007      	b.n	5fa <system_gclk_gen_set_config+0x4e>
 5ea:	3501      	adds	r5, #1
 5ec:	0052      	lsls	r2, r2, #1
 5ee:	429a      	cmp	r2, r3
 5f0:	d3fb      	bcc.n	5ea <system_gclk_gen_set_config+0x3e>
 5f2:	2380      	movs	r3, #128	; 0x80
 5f4:	022d      	lsls	r5, r5, #8
 5f6:	4335      	orrs	r5, r6
 5f8:	035b      	lsls	r3, r3, #13
 5fa:	431c      	orrs	r4, r3
 5fc:	7a0b      	ldrb	r3, [r1, #8]
 5fe:	2b00      	cmp	r3, #0
 600:	d002      	beq.n	608 <system_gclk_gen_set_config+0x5c>
 602:	2380      	movs	r3, #128	; 0x80
 604:	039b      	lsls	r3, r3, #14
 606:	431c      	orrs	r4, r3
 608:	4f0c      	ldr	r7, [pc, #48]	; (63c <system_gclk_gen_set_config+0x90>)
 60a:	47b8      	blx	r7
 60c:	2800      	cmp	r0, #0
 60e:	d1fb      	bne.n	608 <system_gclk_gen_set_config+0x5c>
 610:	4b0b      	ldr	r3, [pc, #44]	; (640 <system_gclk_gen_set_config+0x94>)
 612:	4798      	blx	r3
 614:	4b0b      	ldr	r3, [pc, #44]	; (644 <system_gclk_gen_set_config+0x98>)
 616:	701e      	strb	r6, [r3, #0]
 618:	47b8      	blx	r7
 61a:	2800      	cmp	r0, #0
 61c:	d1fc      	bne.n	618 <system_gclk_gen_set_config+0x6c>
 61e:	4b0a      	ldr	r3, [pc, #40]	; (648 <system_gclk_gen_set_config+0x9c>)
 620:	609d      	str	r5, [r3, #8]
 622:	001d      	movs	r5, r3
 624:	47b8      	blx	r7
 626:	2800      	cmp	r0, #0
 628:	d1fc      	bne.n	624 <system_gclk_gen_set_config+0x78>
 62a:	2280      	movs	r2, #128	; 0x80
 62c:	686b      	ldr	r3, [r5, #4]
 62e:	0252      	lsls	r2, r2, #9
 630:	4013      	ands	r3, r2
 632:	431c      	orrs	r4, r3
 634:	606c      	str	r4, [r5, #4]
 636:	4b05      	ldr	r3, [pc, #20]	; (64c <system_gclk_gen_set_config+0xa0>)
 638:	4798      	blx	r3
 63a:	bdf8      	pop	{r3, r4, r5, r6, r7, pc}
 63c:	00000581 	.word	0x00000581
 640:	00000185 	.word	0x00000185
 644:	40000c08 	.word	0x40000c08
 648:	40000c00 	.word	0x40000c00
 64c:	000001b9 	.word	0x000001b9

00000650 <system_gclk_gen_enable>:
 650:	b570      	push	{r4, r5, r6, lr}
 652:	0005      	movs	r5, r0
 654:	4c09      	ldr	r4, [pc, #36]	; (67c <system_gclk_gen_enable+0x2c>)
 656:	47a0      	blx	r4
 658:	2800      	cmp	r0, #0
 65a:	d1fb      	bne.n	654 <system_gclk_gen_enable+0x4>
 65c:	4b08      	ldr	r3, [pc, #32]	; (680 <system_gclk_gen_enable+0x30>)
 65e:	4798      	blx	r3
 660:	4b08      	ldr	r3, [pc, #32]	; (684 <system_gclk_gen_enable+0x34>)
 662:	701d      	strb	r5, [r3, #0]
 664:	47a0      	blx	r4
 666:	2800      	cmp	r0, #0
 668:	d1fc      	bne.n	664 <system_gclk_gen_enable+0x14>
 66a:	2380      	movs	r3, #128	; 0x80
 66c:	4a06      	ldr	r2, [pc, #24]	; (688 <system_gclk_gen_enable+0x38>)
 66e:	025b      	lsls	r3, r3, #9
 670:	6851      	ldr	r1, [r2, #4]
 672:	430b      	orrs	r3, r1
 674:	6053      	str	r3, [r2, #4]
 676:	4b05      	ldr	r3, [pc, #20]	; (68c <system_gclk_gen_enable+0x3c>)
 678:	4798      	blx	r3
 67a:	bd70      	pop	{r4, r5, r6, pc}
 67c:	00000581 	.word	0x00000581
 680:	00000185 	.word	0x00000185
 684:	40000c04 	.word	0x40000c04
 688:	40000c00 	.word	0x40000c00
 68c:	000001b9 	.word	0x000001b9

00000690 <system_gclk_gen_get_hz>:
 690:	b5f7      	push	{r0, r1, r2, r4, r5, r6, r7, lr}
 692:	0007      	movs	r7, r0
 694:	4e18      	ldr	r6, [pc, #96]	; (6f8 <system_gclk_gen_get_hz+0x68>)
 696:	47b0      	blx	r6
 698:	2800      	cmp	r0, #0
 69a:	d1fb      	bne.n	694 <system_gclk_gen_get_hz+0x4>
 69c:	4b17      	ldr	r3, [pc, #92]	; (6fc <system_gclk_gen_get_hz+0x6c>)
 69e:	4798      	blx	r3
 6a0:	4b17      	ldr	r3, [pc, #92]	; (700 <system_gclk_gen_get_hz+0x70>)
 6a2:	701f      	strb	r7, [r3, #0]
 6a4:	9301      	str	r3, [sp, #4]
 6a6:	47b0      	blx	r6
 6a8:	2800      	cmp	r0, #0
 6aa:	d1fc      	bne.n	6a6 <system_gclk_gen_get_hz+0x16>
 6ac:	4d15      	ldr	r5, [pc, #84]	; (704 <system_gclk_gen_get_hz+0x74>)
 6ae:	4b16      	ldr	r3, [pc, #88]	; (708 <system_gclk_gen_get_hz+0x78>)
 6b0:	6868      	ldr	r0, [r5, #4]
 6b2:	04c0      	lsls	r0, r0, #19
 6b4:	0ec0      	lsrs	r0, r0, #27
 6b6:	4798      	blx	r3
 6b8:	0004      	movs	r4, r0
 6ba:	9b01      	ldr	r3, [sp, #4]
 6bc:	701f      	strb	r7, [r3, #0]
 6be:	686b      	ldr	r3, [r5, #4]
 6c0:	02db      	lsls	r3, r3, #11
 6c2:	0fdb      	lsrs	r3, r3, #31
 6c4:	9301      	str	r3, [sp, #4]
 6c6:	4b11      	ldr	r3, [pc, #68]	; (70c <system_gclk_gen_get_hz+0x7c>)
 6c8:	701f      	strb	r7, [r3, #0]
 6ca:	47b0      	blx	r6
 6cc:	2800      	cmp	r0, #0
 6ce:	d1fc      	bne.n	6ca <system_gclk_gen_get_hz+0x3a>
 6d0:	68ad      	ldr	r5, [r5, #8]
 6d2:	4b0f      	ldr	r3, [pc, #60]	; (710 <system_gclk_gen_get_hz+0x80>)
 6d4:	4798      	blx	r3
 6d6:	9b01      	ldr	r3, [sp, #4]
 6d8:	022d      	lsls	r5, r5, #8
 6da:	0c2d      	lsrs	r5, r5, #16
 6dc:	2b00      	cmp	r3, #0
 6de:	d108      	bne.n	6f2 <system_gclk_gen_get_hz+0x62>
 6e0:	2d01      	cmp	r5, #1
 6e2:	d904      	bls.n	6ee <system_gclk_gen_get_hz+0x5e>
 6e4:	0020      	movs	r0, r4
 6e6:	0029      	movs	r1, r5
 6e8:	4b0a      	ldr	r3, [pc, #40]	; (714 <system_gclk_gen_get_hz+0x84>)
 6ea:	4798      	blx	r3
 6ec:	0004      	movs	r4, r0
 6ee:	0020      	movs	r0, r4
 6f0:	bdfe      	pop	{r1, r2, r3, r4, r5, r6, r7, pc}
 6f2:	3501      	adds	r5, #1
 6f4:	40ec      	lsrs	r4, r5
 6f6:	e7fa      	b.n	6ee <system_gclk_gen_get_hz+0x5e>
 6f8:	00000581 	.word	0x00000581
 6fc:	00000185 	.word	0x00000185
 700:	40000c04 	.word	0x40000c04
 704:	40000c00 	.word	0x40000c00
 708:	000002ed 	.word	0x000002ed
 70c:	40000c08 	.word	0x40000c08
 710:	000001b9 	.word	0x000001b9
 714:	00000a8d 	.word	0x00000a8d

00000718 <system_gclk_chan_enable>:
 718:	b510      	push	{r4, lr}
 71a:	0004      	movs	r4, r0
 71c:	4b06      	ldr	r3, [pc, #24]	; (738 <system_gclk_chan_enable+0x20>)
 71e:	4798      	blx	r3
 720:	4b06      	ldr	r3, [pc, #24]	; (73c <system_gclk_chan_enable+0x24>)
 722:	4a07      	ldr	r2, [pc, #28]	; (740 <system_gclk_chan_enable+0x28>)
 724:	701c      	strb	r4, [r3, #0]
 726:	2380      	movs	r3, #128	; 0x80
 728:	8851      	ldrh	r1, [r2, #2]
 72a:	01db      	lsls	r3, r3, #7
 72c:	430b      	orrs	r3, r1
 72e:	8053      	strh	r3, [r2, #2]
 730:	4b04      	ldr	r3, [pc, #16]	; (744 <system_gclk_chan_enable+0x2c>)
 732:	4798      	blx	r3
 734:	bd10      	pop	{r4, pc}
 736:	46c0      	nop			; (mov r8, r8)
 738:	00000185 	.word	0x00000185
 73c:	40000c02 	.word	0x40000c02
 740:	40000c00 	.word	0x40000c00
 744:	000001b9 	.word	0x000001b9

00000748 <system_gclk_chan_disable>:
 748:	b510      	push	{r4, lr}
 74a:	0004      	movs	r4, r0
 74c:	4b0e      	ldr	r3, [pc, #56]	; (788 <system_gclk_chan_disable+0x40>)
 74e:	4798      	blx	r3
 750:	4b0e      	ldr	r3, [pc, #56]	; (78c <system_gclk_chan_disable+0x44>)
 752:	4a0f      	ldr	r2, [pc, #60]	; (790 <system_gclk_chan_disable+0x48>)
 754:	701c      	strb	r4, [r3, #0]
 756:	4b0f      	ldr	r3, [pc, #60]	; (794 <system_gclk_chan_disable+0x4c>)
 758:	4c0f      	ldr	r4, [pc, #60]	; (798 <system_gclk_chan_disable+0x50>)
 75a:	8858      	ldrh	r0, [r3, #2]
 75c:	8859      	ldrh	r1, [r3, #2]
 75e:	0500      	lsls	r0, r0, #20
 760:	4011      	ands	r1, r2
 762:	8059      	strh	r1, [r3, #2]
 764:	8859      	ldrh	r1, [r3, #2]
 766:	0f00      	lsrs	r0, r0, #28
 768:	4021      	ands	r1, r4
 76a:	8059      	strh	r1, [r3, #2]
 76c:	0011      	movs	r1, r2
 76e:	2280      	movs	r2, #128	; 0x80
 770:	01d2      	lsls	r2, r2, #7
 772:	885c      	ldrh	r4, [r3, #2]
 774:	4214      	tst	r4, r2
 776:	d1fc      	bne.n	772 <system_gclk_chan_disable+0x2a>
 778:	885a      	ldrh	r2, [r3, #2]
 77a:	0200      	lsls	r0, r0, #8
 77c:	400a      	ands	r2, r1
 77e:	4302      	orrs	r2, r0
 780:	805a      	strh	r2, [r3, #2]
 782:	4b06      	ldr	r3, [pc, #24]	; (79c <system_gclk_chan_disable+0x54>)
 784:	4798      	blx	r3
 786:	bd10      	pop	{r4, pc}
 788:	00000185 	.word	0x00000185
 78c:	40000c02 	.word	0x40000c02
 790:	fffff0ff 	.word	0xfffff0ff
 794:	40000c00 	.word	0x40000c00
 798:	ffffbfff 	.word	0xffffbfff
 79c:	000001b9 	.word	0x000001b9

000007a0 <system_gclk_chan_set_config>:
 7a0:	b510      	push	{r4, lr}
 7a2:	780c      	ldrb	r4, [r1, #0]
 7a4:	4b03      	ldr	r3, [pc, #12]	; (7b4 <system_gclk_chan_set_config+0x14>)
 7a6:	0224      	lsls	r4, r4, #8
 7a8:	4304      	orrs	r4, r0
 7aa:	4798      	blx	r3
 7ac:	4b02      	ldr	r3, [pc, #8]	; (7b8 <system_gclk_chan_set_config+0x18>)
 7ae:	b2a4      	uxth	r4, r4
 7b0:	805c      	strh	r4, [r3, #2]
 7b2:	bd10      	pop	{r4, pc}
 7b4:	00000749 	.word	0x00000749
 7b8:	40000c00 	.word	0x40000c00

000007bc <system_gclk_chan_get_hz>:
 7bc:	b510      	push	{r4, lr}
 7be:	0004      	movs	r4, r0
 7c0:	4b06      	ldr	r3, [pc, #24]	; (7dc <system_gclk_chan_get_hz+0x20>)
 7c2:	4798      	blx	r3
 7c4:	4b06      	ldr	r3, [pc, #24]	; (7e0 <system_gclk_chan_get_hz+0x24>)
 7c6:	701c      	strb	r4, [r3, #0]
 7c8:	4b06      	ldr	r3, [pc, #24]	; (7e4 <system_gclk_chan_get_hz+0x28>)
 7ca:	885c      	ldrh	r4, [r3, #2]
 7cc:	4b06      	ldr	r3, [pc, #24]	; (7e8 <system_gclk_chan_get_hz+0x2c>)
 7ce:	0524      	lsls	r4, r4, #20
 7d0:	0f24      	lsrs	r4, r4, #28
 7d2:	4798      	blx	r3
 7d4:	0020      	movs	r0, r4
 7d6:	4b05      	ldr	r3, [pc, #20]	; (7ec <system_gclk_chan_get_hz+0x30>)
 7d8:	4798      	blx	r3
 7da:	bd10      	pop	{r4, pc}
 7dc:	00000185 	.word	0x00000185
 7e0:	40000c02 	.word	0x40000c02
 7e4:	40000c00 	.word	0x40000c00
 7e8:	000001b9 	.word	0x000001b9
 7ec:	00000691 	.word	0x00000691

000007f0 <_system_pinmux_config>:
 7f0:	78d3      	ldrb	r3, [r2, #3]
 7f2:	b530      	push	{r4, r5, lr}
 7f4:	2b00      	cmp	r3, #0
 7f6:	d135      	bne.n	864 <_system_pinmux_config+0x74>
 7f8:	7814      	ldrb	r4, [r2, #0]
 7fa:	2c80      	cmp	r4, #128	; 0x80
 7fc:	d003      	beq.n	806 <_system_pinmux_config+0x16>
 7fe:	2380      	movs	r3, #128	; 0x80
 800:	0624      	lsls	r4, r4, #24
 802:	025b      	lsls	r3, r3, #9
 804:	4323      	orrs	r3, r4
 806:	2502      	movs	r5, #2
 808:	7854      	ldrb	r4, [r2, #1]
 80a:	43ac      	bics	r4, r5
 80c:	d106      	bne.n	81c <_system_pinmux_config+0x2c>
 80e:	7894      	ldrb	r4, [r2, #2]
 810:	2c00      	cmp	r4, #0
 812:	d124      	bne.n	85e <_system_pinmux_config+0x6e>
 814:	2480      	movs	r4, #128	; 0x80
 816:	02a4      	lsls	r4, r4, #10
 818:	4323      	orrs	r3, r4
 81a:	6041      	str	r1, [r0, #4]
 81c:	7854      	ldrb	r4, [r2, #1]
 81e:	3c01      	subs	r4, #1
 820:	2c01      	cmp	r4, #1
 822:	d801      	bhi.n	828 <_system_pinmux_config+0x38>
 824:	4c12      	ldr	r4, [pc, #72]	; (870 <_system_pinmux_config+0x80>)
 826:	4023      	ands	r3, r4
 828:	24a0      	movs	r4, #160	; 0xa0
 82a:	b28d      	uxth	r5, r1
 82c:	05e4      	lsls	r4, r4, #23
 82e:	432c      	orrs	r4, r5
 830:	431c      	orrs	r4, r3
 832:	6284      	str	r4, [r0, #40]	; 0x28
 834:	24d0      	movs	r4, #208	; 0xd0
 836:	0c0d      	lsrs	r5, r1, #16
 838:	0624      	lsls	r4, r4, #24
 83a:	432c      	orrs	r4, r5
 83c:	431c      	orrs	r4, r3
 83e:	6284      	str	r4, [r0, #40]	; 0x28
 840:	78d4      	ldrb	r4, [r2, #3]
 842:	2c00      	cmp	r4, #0
 844:	d10a      	bne.n	85c <_system_pinmux_config+0x6c>
 846:	035b      	lsls	r3, r3, #13
 848:	d503      	bpl.n	852 <_system_pinmux_config+0x62>
 84a:	7893      	ldrb	r3, [r2, #2]
 84c:	2b01      	cmp	r3, #1
 84e:	d10c      	bne.n	86a <_system_pinmux_config+0x7a>
 850:	6181      	str	r1, [r0, #24]
 852:	7853      	ldrb	r3, [r2, #1]
 854:	3b01      	subs	r3, #1
 856:	2b01      	cmp	r3, #1
 858:	d800      	bhi.n	85c <_system_pinmux_config+0x6c>
 85a:	6081      	str	r1, [r0, #8]
 85c:	bd30      	pop	{r4, r5, pc}
 85e:	24c0      	movs	r4, #192	; 0xc0
 860:	02e4      	lsls	r4, r4, #11
 862:	e7d9      	b.n	818 <_system_pinmux_config+0x28>
 864:	6041      	str	r1, [r0, #4]
 866:	2300      	movs	r3, #0
 868:	e7de      	b.n	828 <_system_pinmux_config+0x38>
 86a:	6141      	str	r1, [r0, #20]
 86c:	e7f1      	b.n	852 <_system_pinmux_config+0x62>
 86e:	46c0      	nop			; (mov r8, r8)
 870:	fffbffff 	.word	0xfffbffff

00000874 <system_pinmux_pin_set_config>:
 874:	b510      	push	{r4, lr}
 876:	0003      	movs	r3, r0
 878:	000a      	movs	r2, r1
 87a:	0944      	lsrs	r4, r0, #5
 87c:	09c1      	lsrs	r1, r0, #7
 87e:	2000      	movs	r0, #0
 880:	4281      	cmp	r1, r0
 882:	d102      	bne.n	88a <system_pinmux_pin_set_config+0x16>
 884:	4904      	ldr	r1, [pc, #16]	; (898 <system_pinmux_pin_set_config+0x24>)
 886:	01e0      	lsls	r0, r4, #7
 888:	1840      	adds	r0, r0, r1
 88a:	211f      	movs	r1, #31
 88c:	400b      	ands	r3, r1
 88e:	391e      	subs	r1, #30
 890:	4099      	lsls	r1, r3
 892:	4b02      	ldr	r3, [pc, #8]	; (89c <system_pinmux_pin_set_config+0x28>)
 894:	4798      	blx	r3
 896:	bd10      	pop	{r4, pc}
 898:	41004400 	.word	0x41004400
 89c:	000007f1 	.word	0x000007f1

000008a0 <_system_dummy_init>:
 8a0:	4770      	bx	lr
	...

000008a4 <system_init>:
 8a4:	b510      	push	{r4, lr}
 8a6:	4b05      	ldr	r3, [pc, #20]	; (8bc <system_init+0x18>)
 8a8:	4798      	blx	r3
 8aa:	4b05      	ldr	r3, [pc, #20]	; (8c0 <system_init+0x1c>)
 8ac:	4798      	blx	r3
 8ae:	4b05      	ldr	r3, [pc, #20]	; (8c4 <system_init+0x20>)
 8b0:	4798      	blx	r3
 8b2:	4b05      	ldr	r3, [pc, #20]	; (8c8 <system_init+0x24>)
 8b4:	4798      	blx	r3
 8b6:	4b05      	ldr	r3, [pc, #20]	; (8cc <system_init+0x28>)
 8b8:	4798      	blx	r3
 8ba:	bd10      	pop	{r4, pc}
 8bc:	000004b5 	.word	0x000004b5
 8c0:	00000115 	.word	0x00000115
 8c4:	000008a1 	.word	0x000008a1
 8c8:	00000255 	.word	0x00000255
 8cc:	000008a1 	.word	0x000008a1

000008d0 <Dummy_Handler>:
 8d0:	e7fe      	b.n	8d0 <Dummy_Handler>
	...

000008d4 <Reset_Handler>:
 8d4:	4821      	ldr	r0, [pc, #132]	; (95c <Reset_Handler+0x88>)
 8d6:	4922      	ldr	r1, [pc, #136]	; (960 <Reset_Handler+0x8c>)
 8d8:	b570      	push	{r4, r5, r6, lr}
 8da:	4288      	cmp	r0, r1
 8dc:	d004      	beq.n	8e8 <Reset_Handler+0x14>
 8de:	2300      	movs	r3, #0
 8e0:	4c20      	ldr	r4, [pc, #128]	; (964 <Reset_Handler+0x90>)
 8e2:	18ca      	adds	r2, r1, r3
 8e4:	42a2      	cmp	r2, r4
 8e6:	d332      	bcc.n	94e <Reset_Handler+0x7a>
 8e8:	2100      	movs	r1, #0
 8ea:	4b1f      	ldr	r3, [pc, #124]	; (968 <Reset_Handler+0x94>)
 8ec:	4a1f      	ldr	r2, [pc, #124]	; (96c <Reset_Handler+0x98>)
 8ee:	4293      	cmp	r3, r2
 8f0:	d331      	bcc.n	956 <Reset_Handler+0x82>
 8f2:	21ff      	movs	r1, #255	; 0xff
 8f4:	4b1e      	ldr	r3, [pc, #120]	; (970 <Reset_Handler+0x9c>)
 8f6:	4a1f      	ldr	r2, [pc, #124]	; (974 <Reset_Handler+0xa0>)
 8f8:	438b      	bics	r3, r1
 8fa:	6093      	str	r3, [r2, #8]
 8fc:	2202      	movs	r2, #2
 8fe:	250c      	movs	r5, #12
 900:	2408      	movs	r4, #8
 902:	2630      	movs	r6, #48	; 0x30
 904:	4b1c      	ldr	r3, [pc, #112]	; (978 <Reset_Handler+0xa4>)
 906:	481d      	ldr	r0, [pc, #116]	; (97c <Reset_Handler+0xa8>)
 908:	625a      	str	r2, [r3, #36]	; 0x24
 90a:	78c3      	ldrb	r3, [r0, #3]
 90c:	39fc      	subs	r1, #252	; 0xfc
 90e:	438b      	bics	r3, r1
 910:	4313      	orrs	r3, r2
 912:	70c3      	strb	r3, [r0, #3]
 914:	78c3      	ldrb	r3, [r0, #3]
 916:	43ab      	bics	r3, r5
 918:	4323      	orrs	r3, r4
 91a:	70c3      	strb	r3, [r0, #3]
 91c:	4b18      	ldr	r3, [pc, #96]	; (980 <Reset_Handler+0xac>)
 91e:	7b98      	ldrb	r0, [r3, #14]
 920:	43b0      	bics	r0, r6
 922:	0006      	movs	r6, r0
 924:	2020      	movs	r0, #32
 926:	4330      	orrs	r0, r6
 928:	7398      	strb	r0, [r3, #14]
 92a:	7b98      	ldrb	r0, [r3, #14]
 92c:	43a8      	bics	r0, r5
 92e:	4304      	orrs	r4, r0
 930:	739c      	strb	r4, [r3, #14]
 932:	7b98      	ldrb	r0, [r3, #14]
 934:	4388      	bics	r0, r1
 936:	4302      	orrs	r2, r0
 938:	739a      	strb	r2, [r3, #14]
 93a:	2380      	movs	r3, #128	; 0x80
 93c:	4a11      	ldr	r2, [pc, #68]	; (984 <Reset_Handler+0xb0>)
 93e:	6851      	ldr	r1, [r2, #4]
 940:	430b      	orrs	r3, r1
 942:	6053      	str	r3, [r2, #4]
 944:	4b10      	ldr	r3, [pc, #64]	; (988 <Reset_Handler+0xb4>)
 946:	4798      	blx	r3
 948:	4b10      	ldr	r3, [pc, #64]	; (98c <Reset_Handler+0xb8>)
 94a:	4798      	blx	r3
 94c:	e7fe      	b.n	94c <Reset_Handler+0x78>
 94e:	58c5      	ldr	r5, [r0, r3]
 950:	3304      	adds	r3, #4
 952:	6015      	str	r5, [r2, #0]
 954:	e7c5      	b.n	8e2 <Reset_Handler+0xe>
 956:	c302      	stmia	r3!, {r1}
 958:	e7c9      	b.n	8ee <Reset_Handler+0x1a>
 95a:	46c0      	nop			; (mov r8, r8)
 95c:	00000c0c 	.word	0x00000c0c
 960:	20000000 	.word	0x20000000
 964:	2000000c 	.word	0x2000000c
 968:	2000000c 	.word	0x2000000c
 96c:	2000008c 	.word	0x2000008c
 970:	00000000 	.word	0x00000000
 974:	e000ed00 	.word	0xe000ed00
 978:	410070fc 	.word	0x410070fc
 97c:	41005000 	.word	0x41005000
 980:	41004800 	.word	0x41004800
 984:	41004000 	.word	0x41004000
 988:	00000ba5 	.word	0x00000ba5
 98c:	000009dd 	.word	0x000009dd

00000990 <configure_power_manager>:
 990:	2179      	movs	r1, #121	; 0x79
 992:	4b09      	ldr	r3, [pc, #36]	; (9b8 <configure_power_manager+0x28>)
 994:	699a      	ldr	r2, [r3, #24]
 996:	438a      	bics	r2, r1
 998:	619a      	str	r2, [r3, #24]
 99a:	69da      	ldr	r2, [r3, #28]
 99c:	393a      	subs	r1, #58	; 0x3a
 99e:	438a      	bics	r2, r1
 9a0:	61da      	str	r2, [r3, #28]
 9a2:	6a1a      	ldr	r2, [r3, #32]
 9a4:	4905      	ldr	r1, [pc, #20]	; (9bc <configure_power_manager+0x2c>)
 9a6:	400a      	ands	r2, r1
 9a8:	621a      	str	r2, [r3, #32]
 9aa:	2202      	movs	r2, #2
 9ac:	216e      	movs	r1, #110	; 0x6e
 9ae:	725a      	strb	r2, [r3, #9]
 9b0:	695a      	ldr	r2, [r3, #20]
 9b2:	438a      	bics	r2, r1
 9b4:	615a      	str	r2, [r3, #20]
 9b6:	4770      	bx	lr
 9b8:	40000400 	.word	0x40000400
 9bc:	ffe80000 	.word	0xffe80000

000009c0 <switch_gclkgen_to_peripherals>:
 9c0:	20e0      	movs	r0, #224	; 0xe0
 9c2:	2301      	movs	r3, #1
 9c4:	4904      	ldr	r1, [pc, #16]	; (9d8 <switch_gclkgen_to_peripherals+0x18>)
 9c6:	00c0      	lsls	r0, r0, #3
 9c8:	0002      	movs	r2, r0
 9ca:	431a      	orrs	r2, r3
 9cc:	b292      	uxth	r2, r2
 9ce:	3301      	adds	r3, #1
 9d0:	804a      	strh	r2, [r1, #2]
 9d2:	2b25      	cmp	r3, #37	; 0x25
 9d4:	d1f8      	bne.n	9c8 <switch_gclkgen_to_peripherals+0x8>
 9d6:	4770      	bx	lr
 9d8:	40000c00 	.word	0x40000c00

000009dc <main>:
 9dc:	b5f7      	push	{r0, r1, r2, r4, r5, r6, r7, lr}
 9de:	4b1b      	ldr	r3, [pc, #108]	; (a4c <main+0x70>)
 9e0:	4798      	blx	r3
 9e2:	4b1b      	ldr	r3, [pc, #108]	; (a50 <main+0x74>)
 9e4:	4798      	blx	r3
 9e6:	2580      	movs	r5, #128	; 0x80
 9e8:	2301      	movs	r3, #1
 9ea:	2200      	movs	r2, #0
 9ec:	27fa      	movs	r7, #250	; 0xfa
 9ee:	2405      	movs	r4, #5
 9f0:	a901      	add	r1, sp, #4
 9f2:	4e18      	ldr	r6, [pc, #96]	; (a54 <main+0x78>)
 9f4:	704b      	strb	r3, [r1, #1]
 9f6:	700b      	strb	r3, [r1, #0]
 9f8:	2009      	movs	r0, #9
 9fa:	4b17      	ldr	r3, [pc, #92]	; (a58 <main+0x7c>)
 9fc:	00ad      	lsls	r5, r5, #2
 9fe:	708a      	strb	r2, [r1, #2]
 a00:	00ff      	lsls	r7, r7, #3
 a02:	4798      	blx	r3
 a04:	6175      	str	r5, [r6, #20]
 a06:	61f5      	str	r5, [r6, #28]
 a08:	0038      	movs	r0, r7
 a0a:	4b14      	ldr	r3, [pc, #80]	; (a5c <main+0x80>)
 a0c:	3c01      	subs	r4, #1
 a0e:	4798      	blx	r3
 a10:	2c00      	cmp	r4, #0
 a12:	d1f8      	bne.n	a06 <main+0x2a>
 a14:	4b12      	ldr	r3, [pc, #72]	; (a60 <main+0x84>)
 a16:	4798      	blx	r3
 a18:	4b12      	ldr	r3, [pc, #72]	; (a64 <main+0x88>)
 a1a:	635c      	str	r4, [r3, #52]	; 0x34
 a1c:	4b12      	ldr	r3, [pc, #72]	; (a68 <main+0x8c>)
 a1e:	4798      	blx	r3
 a20:	4b12      	ldr	r3, [pc, #72]	; (a6c <main+0x90>)
 a22:	699b      	ldr	r3, [r3, #24]
 a24:	051b      	lsls	r3, r3, #20
 a26:	0f1b      	lsrs	r3, r3, #28
 a28:	2b02      	cmp	r3, #2
 a2a:	d805      	bhi.n	a38 <main+0x5c>
 a2c:	23c0      	movs	r3, #192	; 0xc0
 a2e:	4a10      	ldr	r2, [pc, #64]	; (a70 <main+0x94>)
 a30:	009b      	lsls	r3, r3, #2
 a32:	6851      	ldr	r1, [r2, #4]
 a34:	430b      	orrs	r3, r1
 a36:	6053      	str	r3, [r2, #4]
 a38:	2304      	movs	r3, #4
 a3a:	4a0e      	ldr	r2, [pc, #56]	; (a74 <main+0x98>)
 a3c:	6911      	ldr	r1, [r2, #16]
 a3e:	430b      	orrs	r3, r1
 a40:	6113      	str	r3, [r2, #16]
 a42:	f3bf 8f4f 	dsb	sy
 a46:	bf30      	wfi
 a48:	e7fe      	b.n	a48 <main+0x6c>
 a4a:	46c0      	nop			; (mov r8, r8)
 a4c:	000008a5 	.word	0x000008a5
 a50:	00000119 	.word	0x00000119
 a54:	41004400 	.word	0x41004400
 a58:	000002bd 	.word	0x000002bd
 a5c:	00000159 	.word	0x00000159
 a60:	000009c1 	.word	0x000009c1
 a64:	40000800 	.word	0x40000800
 a68:	00000991 	.word	0x00000991
 a6c:	41002000 	.word	0x41002000
 a70:	41004000 	.word	0x41004000
 a74:	e000ed00 	.word	0xe000ed00

00000a78 <__gnu_thumb1_case_uqi>:
 a78:	b402      	push	{r1}
 a7a:	4671      	mov	r1, lr
 a7c:	0849      	lsrs	r1, r1, #1
 a7e:	0049      	lsls	r1, r1, #1
 a80:	5c09      	ldrb	r1, [r1, r0]
 a82:	0049      	lsls	r1, r1, #1
 a84:	448e      	add	lr, r1
 a86:	bc02      	pop	{r1}
 a88:	4770      	bx	lr
 a8a:	46c0      	nop			; (mov r8, r8)

00000a8c <__udivsi3>:
 a8c:	2200      	movs	r2, #0
 a8e:	0843      	lsrs	r3, r0, #1
 a90:	428b      	cmp	r3, r1
 a92:	d374      	bcc.n	b7e <__udivsi3+0xf2>
 a94:	0903      	lsrs	r3, r0, #4
 a96:	428b      	cmp	r3, r1
 a98:	d35f      	bcc.n	b5a <__udivsi3+0xce>
 a9a:	0a03      	lsrs	r3, r0, #8
 a9c:	428b      	cmp	r3, r1
 a9e:	d344      	bcc.n	b2a <__udivsi3+0x9e>
 aa0:	0b03      	lsrs	r3, r0, #12
 aa2:	428b      	cmp	r3, r1
 aa4:	d328      	bcc.n	af8 <__udivsi3+0x6c>
 aa6:	0c03      	lsrs	r3, r0, #16
 aa8:	428b      	cmp	r3, r1
 aaa:	d30d      	bcc.n	ac8 <__udivsi3+0x3c>
 aac:	22ff      	movs	r2, #255	; 0xff
 aae:	0209      	lsls	r1, r1, #8
 ab0:	ba12      	rev	r2, r2
 ab2:	0c03      	lsrs	r3, r0, #16
 ab4:	428b      	cmp	r3, r1
 ab6:	d302      	bcc.n	abe <__udivsi3+0x32>
 ab8:	1212      	asrs	r2, r2, #8
 aba:	0209      	lsls	r1, r1, #8
 abc:	d065      	beq.n	b8a <__udivsi3+0xfe>
 abe:	0b03      	lsrs	r3, r0, #12
 ac0:	428b      	cmp	r3, r1
 ac2:	d319      	bcc.n	af8 <__udivsi3+0x6c>
 ac4:	e000      	b.n	ac8 <__udivsi3+0x3c>
 ac6:	0a09      	lsrs	r1, r1, #8
 ac8:	0bc3      	lsrs	r3, r0, #15
 aca:	428b      	cmp	r3, r1
 acc:	d301      	bcc.n	ad2 <__udivsi3+0x46>
 ace:	03cb      	lsls	r3, r1, #15
 ad0:	1ac0      	subs	r0, r0, r3
 ad2:	4152      	adcs	r2, r2
 ad4:	0b83      	lsrs	r3, r0, #14
 ad6:	428b      	cmp	r3, r1
 ad8:	d301      	bcc.n	ade <__udivsi3+0x52>
 ada:	038b      	lsls	r3, r1, #14
 adc:	1ac0      	subs	r0, r0, r3
 ade:	4152      	adcs	r2, r2
 ae0:	0b43      	lsrs	r3, r0, #13
 ae2:	428b      	cmp	r3, r1
 ae4:	d301      	bcc.n	aea <__udivsi3+0x5e>
 ae6:	034b      	lsls	r3, r1, #13
 ae8:	1ac0      	subs	r0, r0, r3
 aea:	4152      	adcs	r2, r2
 aec:	0b03      	lsrs	r3, r0, #12
 aee:	428b      	cmp	r3, r1
 af0:	d301      	bcc.n	af6 <__udivsi3+0x6a>
 af2:	030b      	lsls	r3, r1, #12
 af4:	1ac0      	subs	r0, r0, r3
 af6:	4152      	adcs	r2, r2
 af8:	0ac3      	lsrs	r3, r0, #11
 afa:	428b      	cmp	r3, r1
 afc:	d301      	bcc.n	b02 <__udivsi3+0x76>
 afe:	02cb      	lsls	r3, r1, #11
 b00:	1ac0      	subs	r0, r0, r3
 b02:	4152      	adcs	r2, r2
 b04:	0a83      	lsrs	r3, r0, #10
 b06:	428b      	cmp	r3, r1
 b08:	d301      	bcc.n	b0e <__udivsi3+0x82>
 b0a:	028b      	lsls	r3, r1, #10
 b0c:	1ac0      	subs	r0, r0, r3
 b0e:	4152      	adcs	r2, r2
 b10:	0a43      	lsrs	r3, r0, #9
 b12:	428b      	cmp	r3, r1
 b14:	d301      	bcc.n	b1a <__udivsi3+0x8e>
 b16:	024b      	lsls	r3, r1, #9
 b18:	1ac0      	subs	r0, r0, r3
 b1a:	4152      	adcs	r2, r2
 b1c:	0a03      	lsrs	r3, r0, #8
 b1e:	428b      	cmp	r3, r1
 b20:	d301      	bcc.n	b26 <__udivsi3+0x9a>
 b22:	020b      	lsls	r3, r1, #8
 b24:	1ac0      	subs	r0, r0, r3
 b26:	4152      	adcs	r2, r2
 b28:	d2cd      	bcs.n	ac6 <__udivsi3+0x3a>
 b2a:	09c3      	lsrs	r3, r0, #7
 b2c:	428b      	cmp	r3, r1
 b2e:	d301      	bcc.n	b34 <__udivsi3+0xa8>
 b30:	01cb      	lsls	r3, r1, #7
 b32:	1ac0      	subs	r0, r0, r3
 b34:	4152      	adcs	r2, r2
 b36:	0983      	lsrs	r3, r0, #6
 b38:	428b      	cmp	r3, r1
 b3a:	d301      	bcc.n	b40 <__udivsi3+0xb4>
 b3c:	018b      	lsls	r3, r1, #6
 b3e:	1ac0      	subs	r0, r0, r3
 b40:	4152      	adcs	r2, r2
 b42:	0943      	lsrs	r3, r0, #5
 b44:	428b      	cmp	r3, r1
 b46:	d301      	bcc.n	b4c <__udivsi3+0xc0>
 b48:	014b      	lsls	r3, r1, #5
 b4a:	1ac0      	subs	r0, r0, r3
 b4c:	4152      	adcs	r2, r2
 b4e:	0903      	lsrs	r3, r0, #4
 b50:	428b      	cmp	r3, r1
 b52:	d301      	bcc.n	b58 <__udivsi3+0xcc>
 b54:	010b      	lsls	r3, r1, #4
 b56:	1ac0      	subs	r0, r0, r3
 b58:	4152      	adcs	r2, r2
 b5a:	08c3      	lsrs	r3, r0, #3
 b5c:	428b      	cmp	r3, r1
 b5e:	d301      	bcc.n	b64 <__udivsi3+0xd8>
 b60:	00cb      	lsls	r3, r1, #3
 b62:	1ac0      	subs	r0, r0, r3
 b64:	4152      	adcs	r2, r2
 b66:	0883      	lsrs	r3, r0, #2
 b68:	428b      	cmp	r3, r1
 b6a:	d301      	bcc.n	b70 <__udivsi3+0xe4>
 b6c:	008b      	lsls	r3, r1, #2
 b6e:	1ac0      	subs	r0, r0, r3
 b70:	4152      	adcs	r2, r2
 b72:	0843      	lsrs	r3, r0, #1
 b74:	428b      	cmp	r3, r1
 b76:	d301      	bcc.n	b7c <__udivsi3+0xf0>
 b78:	004b      	lsls	r3, r1, #1
 b7a:	1ac0      	subs	r0, r0, r3
 b7c:	4152      	adcs	r2, r2
 b7e:	1a41      	subs	r1, r0, r1
 b80:	d200      	bcs.n	b84 <__udivsi3+0xf8>
 b82:	4601      	mov	r1, r0
 b84:	4152      	adcs	r2, r2
 b86:	4610      	mov	r0, r2
 b88:	4770      	bx	lr
 b8a:	e7ff      	b.n	b8c <__udivsi3+0x100>
 b8c:	b501      	push	{r0, lr}
 b8e:	2000      	movs	r0, #0
 b90:	f000 f806 	bl	ba0 <__aeabi_idiv0>
 b94:	bd02      	pop	{r1, pc}
 b96:	46c0      	nop			; (mov r8, r8)

00000b98 <__aeabi_uidivmod>:
 b98:	2900      	cmp	r1, #0
 b9a:	d0f7      	beq.n	b8c <__udivsi3+0x100>
 b9c:	e776      	b.n	a8c <__udivsi3>
 b9e:	4770      	bx	lr

00000ba0 <__aeabi_idiv0>:
 ba0:	4770      	bx	lr
 ba2:	46c0      	nop			; (mov r8, r8)

00000ba4 <__libc_init_array>:
 ba4:	b570      	push	{r4, r5, r6, lr}
 ba6:	2600      	movs	r6, #0
 ba8:	4d0c      	ldr	r5, [pc, #48]	; (bdc <__libc_init_array+0x38>)
 baa:	4c0d      	ldr	r4, [pc, #52]	; (be0 <__libc_init_array+0x3c>)
 bac:	1b64      	subs	r4, r4, r5
 bae:	10a4      	asrs	r4, r4, #2
 bb0:	42a6      	cmp	r6, r4
 bb2:	d109      	bne.n	bc8 <__libc_init_array+0x24>
 bb4:	2600      	movs	r6, #0
 bb6:	f000 f819 	bl	bec <_init>
 bba:	4d0a      	ldr	r5, [pc, #40]	; (be4 <__libc_init_array+0x40>)
 bbc:	4c0a      	ldr	r4, [pc, #40]	; (be8 <__libc_init_array+0x44>)
 bbe:	1b64      	subs	r4, r4, r5
 bc0:	10a4      	asrs	r4, r4, #2
 bc2:	42a6      	cmp	r6, r4
 bc4:	d105      	bne.n	bd2 <__libc_init_array+0x2e>
 bc6:	bd70      	pop	{r4, r5, r6, pc}
 bc8:	00b3      	lsls	r3, r6, #2
 bca:	58eb      	ldr	r3, [r5, r3]
 bcc:	4798      	blx	r3
 bce:	3601      	adds	r6, #1
 bd0:	e7ee      	b.n	bb0 <__libc_init_array+0xc>
 bd2:	00b3      	lsls	r3, r6, #2
 bd4:	58eb      	ldr	r3, [r5, r3]
 bd6:	4798      	blx	r3
 bd8:	3601      	adds	r6, #1
 bda:	e7f2      	b.n	bc2 <__libc_init_array+0x1e>
 bdc:	00000bf8 	.word	0x00000bf8
 be0:	00000bf8 	.word	0x00000bf8
 be4:	00000bf8 	.word	0x00000bf8
 be8:	00000bfc 	.word	0x00000bfc

00000bec <_init>:
 bec:	b5f8      	push	{r3, r4, r5, r6, r7, lr}
 bee:	46c0      	nop			; (mov r8, r8)
 bf0:	bcf8      	pop	{r3, r4, r5, r6, r7}
 bf2:	bc08      	pop	{r3}
 bf4:	469e      	mov	lr, r3
 bf6:	4770      	bx	lr

00000bf8 <__init_array_start>:
 bf8:	000000dd 	.word	0x000000dd

00000bfc <_fini>:
 bfc:	b5f8      	push	{r3, r4, r5, r6, r7, lr}
 bfe:	46c0      	nop			; (mov r8, r8)
 c00:	bcf8      	pop	{r3, r4, r5, r6, r7}
 c02:	bc08      	pop	{r3}
 c04:	469e      	mov	lr, r3
 c06:	4770      	bx	lr

00000c08 <__fini_array_start>:
 c08:	000000b5 	.word	0x000000b5
